target datalayout = "e-m:e-p270:32:32-p271:32:32-p272:64:64-i64:64-i128:128-f80:128-n8:16:32:64-S128"
target triple = "x86_64-pc-linux-gnu"

%struct.X509_name_st = type { ptr, i32, ptr, ptr, i32 }
%struct.env_md_ctx_st = type { ptr, ptr, ptr, ptr }
%struct.buf_mem_st = type { i64, ptr, i64 }

; Function Attrs: nounwind uwtable
define hidden i64 @X509_NAME_hash_old(ptr noundef %0) #0 {
  %2 = alloca ptr, align 8
  %3 = alloca %struct.env_md_ctx_st, align 8
  %4 = alloca i64, align 8
  %5 = alloca [16 x i8], align 16
  store ptr %0, ptr %2, align 8, !tbaa !37
  call void @llvm.lifetime.start.p0(i64 32, ptr %3) #5
  call void @llvm.lifetime.start.p0(i64 8, ptr %4) #5
  store i64 0, ptr %4, align 8, !tbaa !44
  call void @llvm.lifetime.start.p0(i64 16, ptr %5) #5
  %6 = load ptr, ptr %2, align 8, !tbaa !37
  %7 = call i32 @i2d_X509_NAME(ptr noundef %6, ptr noundef null)
  call void @EVP_MD_CTX_init(ptr noundef %3)
  %8 = call ptr @EVP_md5()
  %9 = call i32 @EVP_DigestInit_ex(ptr noundef %3, ptr noundef %8, ptr noundef null)
  %10 = icmp ne i32 %9, 0
  br i1 %10, label %11, label %48

11:                                               ; preds = %1
  %12 = load ptr, ptr %2, align 8, !tbaa !37
  %13 = getelementptr inbounds nuw %struct.X509_name_st, ptr %12, i32 0, i32 2
  %14 = load ptr, ptr %13, align 8, !tbaa !62
  %15 = getelementptr inbounds nuw %struct.buf_mem_st, ptr %14, i32 0, i32 1
  %16 = load ptr, ptr %15, align 8, !tbaa !63
  %17 = load ptr, ptr %2, align 8, !tbaa !37
  %18 = getelementptr inbounds nuw %struct.X509_name_st, ptr %17, i32 0, i32 2
  %19 = load ptr, ptr %18, align 8, !tbaa !62
  %20 = getelementptr inbounds nuw %struct.buf_mem_st, ptr %19, i32 0, i32 0
  %21 = load i64, ptr %20, align 8, !tbaa !65
  %22 = call i32 @EVP_DigestUpdate(ptr noundef %3, ptr noundef %16, i64 noundef %21)
  %23 = icmp ne i32 %22, 0
  br i1 %23, label %24, label %48

24:                                               ; preds = %11
  %25 = getelementptr inbounds [16 x i8], ptr %5, i64 0, i64 0
  %26 = call i32 @EVP_DigestFinal_ex(ptr noundef %3, ptr noundef %25, ptr noundef null)
  %27 = icmp ne i32 %26, 0
  br i1 %27, label %28, label %48

28:                                               ; preds = %24
  %29 = getelementptr inbounds [16 x i8], ptr %5, i64 0, i64 0
  %30 = load i8, ptr %29, align 16, !tbaa !49
  %31 = zext i8 %30 to i64
  %32 = getelementptr inbounds [16 x i8], ptr %5, i64 0, i64 1
  %33 = load i8, ptr %32, align 1, !tbaa !49
  %34 = zext i8 %33 to i64
  %35 = shl i64 %34, 8
  %36 = or i64 %31, %35
  %37 = getelementptr inbounds [16 x i8], ptr %5, i64 0, i64 2
  %38 = load i8, ptr %37, align 2, !tbaa !49
  %39 = zext i8 %38 to i64
  %40 = shl i64 %39, 16
  %41 = or i64 %36, %40
  %42 = getelementptr inbounds [16 x i8], ptr %5, i64 0, i64 3
  %43 = load i8, ptr %42, align 1, !tbaa !49
  %44 = zext i8 %43 to i64
  %45 = shl i64 %44, 24
  %46 = or i64 %41, %45
  %47 = and i64 %46, 4294967295
  store i64 %47, ptr %4, align 8, !tbaa !44
  br label %48

48:                                               ; preds = %28, %24, %11, %1
  %49 = call i32 @EVP_MD_CTX_cleanup(ptr noundef %3)
  %50 = load i64, ptr %4, align 8, !tbaa !44
  call void @llvm.lifetime.end.p0(i64 16, ptr %5) #5
  call void @llvm.lifetime.end.p0(i64 8, ptr %4) #5
  call void @llvm.lifetime.end.p0(i64 32, ptr %3) #5
  ret i64 %50
}