; Function Attrs: nounwind uwtable
define hidden range(i64 0, 4294967296) i64 @X509_NAME_hash_old(ptr noundef %0) local_unnamed_addr #0 {
  %2 = alloca %struct.env_md_ctx_st, align 8
  %3 = alloca [16 x i8], align 16
  call void @llvm.lifetime.start.p0(i64 32, ptr nonnull %2) #8
  call void @llvm.lifetime.start.p0(i64 16, ptr nonnull %3) #8
  %4 = tail call i32 @i2d_X509_NAME(ptr noundef %0, ptr noundef null) #8
  call void @EVP_MD_CTX_init(ptr noundef nonnull %2) #8
  %5 = call ptr @EVP_md5() #8
  %6 = call i32 @EVP_DigestInit_ex(ptr noundef nonnull %2, ptr noundef %5, ptr noundef null) #8
  %.not = icmp eq i32 %6, 0
  br i1 %.not, label %19, label %7

7:                                                ; preds = %1
  %8 = getelementptr inbounds nuw i8, ptr %0, i64 16
  %9 = load ptr, ptr %8, align 8, !tbaa !52
  %10 = getelementptr inbounds nuw i8, ptr %9, i64 8
  %11 = load ptr, ptr %10, align 8, !tbaa !53
  %12 = load i64, ptr %9, align 8, !tbaa !55
  %13 = call i32 @EVP_DigestUpdate(ptr noundef nonnull %2, ptr noundef %11, i64 noundef %12) #8
  %.not3 = icmp eq i32 %13, 0
  br i1 %.not3, label %19, label %14

14:                                               ; preds = %7
  %15 = call i32 @EVP_DigestFinal_ex(ptr noundef nonnull %2, ptr noundef nonnull %3, ptr noundef null) #8
  %.not4 = icmp eq i32 %15, 0
  br i1 %.not4, label %19, label %16

16:                                               ; preds = %14
  %17 = load i32, ptr %3, align 16
  %18 = zext i32 %17 to i64
  br label %19

19:                                               ; preds = %16, %14, %7, %1
  %.0 = phi i64 [ %18, %16 ], [ 0, %14 ], [ 0, %7 ], [ 0, %1 ]
  %20 = call i32 @EVP_MD_CTX_cleanup(ptr noundef nonnull %2) #8
  call void @llvm.lifetime.end.p0(i64 16, ptr nonnull %3) #8
  call void @llvm.lifetime.end.p0(i64 32, ptr nonnull %2) #8
  ret i64 %.0
}